
overflow:     file format elf64-x86-64


Disassembly of section .init:

00000000000005b8 <_init>:
 5b8:	48 83 ec 08          	sub    rsp,0x8
 5bc:	48 8b 05 25 0a 20 00 	mov    rax,QWORD PTR [rip+0x200a25]        # 200fe8 <__gmon_start__>
 5c3:	48 85 c0             	test   rax,rax
 5c6:	74 02                	je     5ca <_init+0x12>
 5c8:	ff d0                	call   rax
 5ca:	48 83 c4 08          	add    rsp,0x8
 5ce:	c3                   	ret    

Disassembly of section .plt:

00000000000005d0 <.plt>:
 5d0:	ff 35 d2 09 20 00    	push   QWORD PTR [rip+0x2009d2]        # 200fa8 <_GLOBAL_OFFSET_TABLE_+0x8>
 5d6:	ff 25 d4 09 20 00    	jmp    QWORD PTR [rip+0x2009d4]        # 200fb0 <_GLOBAL_OFFSET_TABLE_+0x10>
 5dc:	0f 1f 40 00          	nop    DWORD PTR [rax+0x0]

00000000000005e0 <puts@plt>:
 5e0:	ff 25 d2 09 20 00    	jmp    QWORD PTR [rip+0x2009d2]        # 200fb8 <puts@GLIBC_2.2.5>
 5e6:	68 00 00 00 00       	push   0x0
 5eb:	e9 e0 ff ff ff       	jmp    5d0 <.plt>

00000000000005f0 <__stack_chk_fail@plt>:
 5f0:	ff 25 ca 09 20 00    	jmp    QWORD PTR [rip+0x2009ca]        # 200fc0 <__stack_chk_fail@GLIBC_2.4>
 5f6:	68 01 00 00 00       	push   0x1
 5fb:	e9 d0 ff ff ff       	jmp    5d0 <.plt>

0000000000000600 <printf@plt>:
 600:	ff 25 c2 09 20 00    	jmp    QWORD PTR [rip+0x2009c2]        # 200fc8 <printf@GLIBC_2.2.5>
 606:	68 02 00 00 00       	push   0x2
 60b:	e9 c0 ff ff ff       	jmp    5d0 <.plt>

0000000000000610 <exit@plt>:
 610:	ff 25 ba 09 20 00    	jmp    QWORD PTR [rip+0x2009ba]        # 200fd0 <exit@GLIBC_2.2.5>
 616:	68 03 00 00 00       	push   0x3
 61b:	e9 b0 ff ff ff       	jmp    5d0 <.plt>

Disassembly of section .plt.got:

0000000000000620 <__cxa_finalize@plt>:
 620:	ff 25 d2 09 20 00    	jmp    QWORD PTR [rip+0x2009d2]        # 200ff8 <__cxa_finalize@GLIBC_2.2.5>
 626:	66 90                	xchg   ax,ax

Disassembly of section .text:

0000000000000630 <_start>:
 630:	31 ed                	xor    ebp,ebp
 632:	49 89 d1             	mov    r9,rdx
 635:	5e                   	pop    rsi
 636:	48 89 e2             	mov    rdx,rsp
 639:	48 83 e4 f0          	and    rsp,0xfffffffffffffff0
 63d:	50                   	push   rax
 63e:	54                   	push   rsp
 63f:	4c 8d 05 aa 03 00 00 	lea    r8,[rip+0x3aa]        # 9f0 <__libc_csu_fini>
 646:	48 8d 0d 33 03 00 00 	lea    rcx,[rip+0x333]        # 980 <__libc_csu_init>
 64d:	48 8d 3d c4 02 00 00 	lea    rdi,[rip+0x2c4]        # 918 <main>
 654:	ff 15 86 09 20 00    	call   QWORD PTR [rip+0x200986]        # 200fe0 <__libc_start_main@GLIBC_2.2.5>
 65a:	f4                   	hlt    
 65b:	0f 1f 44 00 00       	nop    DWORD PTR [rax+rax*1+0x0]

0000000000000660 <deregister_tm_clones>:
 660:	48 8d 3d a9 09 20 00 	lea    rdi,[rip+0x2009a9]        # 201010 <__TMC_END__>
 667:	55                   	push   rbp
 668:	48 8d 05 a1 09 20 00 	lea    rax,[rip+0x2009a1]        # 201010 <__TMC_END__>
 66f:	48 39 f8             	cmp    rax,rdi
 672:	48 89 e5             	mov    rbp,rsp
 675:	74 19                	je     690 <deregister_tm_clones+0x30>
 677:	48 8b 05 5a 09 20 00 	mov    rax,QWORD PTR [rip+0x20095a]        # 200fd8 <_ITM_deregisterTMCloneTable>
 67e:	48 85 c0             	test   rax,rax
 681:	74 0d                	je     690 <deregister_tm_clones+0x30>
 683:	5d                   	pop    rbp
 684:	ff e0                	jmp    rax
 686:	66 2e 0f 1f 84 00 00 	nop    WORD PTR cs:[rax+rax*1+0x0]
 68d:	00 00 00 
 690:	5d                   	pop    rbp
 691:	c3                   	ret    
 692:	0f 1f 40 00          	nop    DWORD PTR [rax+0x0]
 696:	66 2e 0f 1f 84 00 00 	nop    WORD PTR cs:[rax+rax*1+0x0]
 69d:	00 00 00 

00000000000006a0 <register_tm_clones>:
 6a0:	48 8d 3d 69 09 20 00 	lea    rdi,[rip+0x200969]        # 201010 <__TMC_END__>
 6a7:	48 8d 35 62 09 20 00 	lea    rsi,[rip+0x200962]        # 201010 <__TMC_END__>
 6ae:	55                   	push   rbp
 6af:	48 29 fe             	sub    rsi,rdi
 6b2:	48 89 e5             	mov    rbp,rsp
 6b5:	48 c1 fe 03          	sar    rsi,0x3
 6b9:	48 89 f0             	mov    rax,rsi
 6bc:	48 c1 e8 3f          	shr    rax,0x3f
 6c0:	48 01 c6             	add    rsi,rax
 6c3:	48 d1 fe             	sar    rsi,1
 6c6:	74 18                	je     6e0 <register_tm_clones+0x40>
 6c8:	48 8b 05 21 09 20 00 	mov    rax,QWORD PTR [rip+0x200921]        # 200ff0 <_ITM_registerTMCloneTable>
 6cf:	48 85 c0             	test   rax,rax
 6d2:	74 0c                	je     6e0 <register_tm_clones+0x40>
 6d4:	5d                   	pop    rbp
 6d5:	ff e0                	jmp    rax
 6d7:	66 0f 1f 84 00 00 00 	nop    WORD PTR [rax+rax*1+0x0]
 6de:	00 00 
 6e0:	5d                   	pop    rbp
 6e1:	c3                   	ret    
 6e2:	0f 1f 40 00          	nop    DWORD PTR [rax+0x0]
 6e6:	66 2e 0f 1f 84 00 00 	nop    WORD PTR cs:[rax+rax*1+0x0]
 6ed:	00 00 00 

00000000000006f0 <__do_global_dtors_aux>:
 6f0:	80 3d 29 09 20 00 00 	cmp    BYTE PTR [rip+0x200929],0x0        # 201020 <completed.7698>
 6f7:	75 2f                	jne    728 <__do_global_dtors_aux+0x38>
 6f9:	48 83 3d f7 08 20 00 	cmp    QWORD PTR [rip+0x2008f7],0x0        # 200ff8 <__cxa_finalize@GLIBC_2.2.5>
 700:	00 
 701:	55                   	push   rbp
 702:	48 89 e5             	mov    rbp,rsp
 705:	74 0c                	je     713 <__do_global_dtors_aux+0x23>
 707:	48 8b 3d fa 08 20 00 	mov    rdi,QWORD PTR [rip+0x2008fa]        # 201008 <__dso_handle>
 70e:	e8 0d ff ff ff       	call   620 <__cxa_finalize@plt>
 713:	e8 48 ff ff ff       	call   660 <deregister_tm_clones>
 718:	c6 05 01 09 20 00 01 	mov    BYTE PTR [rip+0x200901],0x1        # 201020 <completed.7698>
 71f:	5d                   	pop    rbp
 720:	c3                   	ret    
 721:	0f 1f 80 00 00 00 00 	nop    DWORD PTR [rax+0x0]
 728:	f3 c3                	repz ret 
 72a:	66 0f 1f 44 00 00    	nop    WORD PTR [rax+rax*1+0x0]

0000000000000730 <frame_dummy>:
 730:	55                   	push   rbp
 731:	48 89 e5             	mov    rbp,rsp
 734:	5d                   	pop    rbp
 735:	e9 66 ff ff ff       	jmp    6a0 <register_tm_clones>

000000000000073a <show_snapshot>:
 73a:	55                   	push   rbp
 73b:	48 89 e5             	mov    rbp,rsp
 73e:	c7 05 10 09 20 00 00 	mov    DWORD PTR [rip+0x200910],0x0        # 201058 <i>
 745:	00 00 00 
 748:	eb 57                	jmp    7a1 <show_snapshot+0x67>
 74a:	8b 05 08 09 20 00    	mov    eax,DWORD PTR [rip+0x200908]        # 201058 <i>
 750:	48 98                	cdqe   
 752:	48 c1 e0 04          	shl    rax,0x4
 756:	48 89 c2             	mov    rdx,rax
 759:	48 8d 05 08 09 20 00 	lea    rax,[rip+0x200908]        # 201068 <stack+0x8>
 760:	48 8b 14 02          	mov    rdx,QWORD PTR [rdx+rax*1]
 764:	8b 05 ee 08 20 00    	mov    eax,DWORD PTR [rip+0x2008ee]        # 201058 <i>
 76a:	48 98                	cdqe   
 76c:	48 c1 e0 04          	shl    rax,0x4
 770:	48 89 c1             	mov    rcx,rax
 773:	48 8d 05 e6 08 20 00 	lea    rax,[rip+0x2008e6]        # 201060 <stack>
 77a:	48 8b 04 01          	mov    rax,QWORD PTR [rcx+rax*1]
 77e:	48 89 c6             	mov    rsi,rax
 781:	48 8d 3d 7c 02 00 00 	lea    rdi,[rip+0x27c]        # a04 <_IO_stdin_used+0x4>
 788:	b8 00 00 00 00       	mov    eax,0x0
 78d:	e8 6e fe ff ff       	call   600 <printf@plt>
 792:	8b 05 c0 08 20 00    	mov    eax,DWORD PTR [rip+0x2008c0]        # 201058 <i>
 798:	83 c0 01             	add    eax,0x1
 79b:	89 05 b7 08 20 00    	mov    DWORD PTR [rip+0x2008b7],eax        # 201058 <i>
 7a1:	8b 15 b1 08 20 00    	mov    edx,DWORD PTR [rip+0x2008b1]        # 201058 <i>
 7a7:	8b 05 93 08 20 00    	mov    eax,DWORD PTR [rip+0x200893]        # 201040 <size>
 7ad:	39 c2                	cmp    edx,eax
 7af:	7c 99                	jl     74a <show_snapshot+0x10>
 7b1:	90                   	nop
 7b2:	5d                   	pop    rbp
 7b3:	c3                   	ret    

00000000000007b4 <take_snapshot>:
 7b4:	55                   	push   rbp
 7b5:	48 89 e5             	mov    rbp,rsp
 7b8:	48 8b 05 a1 10 20 00 	mov    rax,QWORD PTR [rip+0x2010a1]        # 201860 <ebp>
 7bf:	48 89 05 82 08 20 00 	mov    QWORD PTR [rip+0x200882],rax        # 201048 <p>
 7c6:	eb 67                	jmp    82f <take_snapshot+0x7b>
 7c8:	8b 05 72 08 20 00    	mov    eax,DWORD PTR [rip+0x200872]        # 201040 <size>
 7ce:	48 8b 15 73 08 20 00 	mov    rdx,QWORD PTR [rip+0x200873]        # 201048 <p>
 7d5:	48 98                	cdqe   
 7d7:	48 c1 e0 04          	shl    rax,0x4
 7db:	48 89 c1             	mov    rcx,rax
 7de:	48 8d 05 7b 08 20 00 	lea    rax,[rip+0x20087b]        # 201060 <stack>
 7e5:	48 89 14 01          	mov    QWORD PTR [rcx+rax*1],rdx
 7e9:	48 8b 05 58 08 20 00 	mov    rax,QWORD PTR [rip+0x200858]        # 201048 <p>
 7f0:	8b 0d 4a 08 20 00    	mov    ecx,DWORD PTR [rip+0x20084a]        # 201040 <size>
 7f6:	48 8b 10             	mov    rdx,QWORD PTR [rax]
 7f9:	48 63 c1             	movsxd rax,ecx
 7fc:	48 c1 e0 04          	shl    rax,0x4
 800:	48 89 c1             	mov    rcx,rax
 803:	48 8d 05 5e 08 20 00 	lea    rax,[rip+0x20085e]        # 201068 <stack+0x8>
 80a:	48 89 14 01          	mov    QWORD PTR [rcx+rax*1],rdx
 80e:	8b 05 2c 08 20 00    	mov    eax,DWORD PTR [rip+0x20082c]        # 201040 <size>
 814:	83 c0 01             	add    eax,0x1
 817:	89 05 23 08 20 00    	mov    DWORD PTR [rip+0x200823],eax        # 201040 <size>
 81d:	48 8b 05 24 08 20 00 	mov    rax,QWORD PTR [rip+0x200824]        # 201048 <p>
 824:	48 83 e8 08          	sub    rax,0x8
 828:	48 89 05 19 08 20 00 	mov    QWORD PTR [rip+0x200819],rax        # 201048 <p>
 82f:	48 8b 15 12 08 20 00 	mov    rdx,QWORD PTR [rip+0x200812]        # 201048 <p>
 836:	48 8b 05 13 08 20 00 	mov    rax,QWORD PTR [rip+0x200813]        # 201050 <esp>
 83d:	48 39 c2             	cmp    rdx,rax
 840:	73 86                	jae    7c8 <take_snapshot+0x14>
 842:	90                   	nop
 843:	5d                   	pop    rbp
 844:	c3                   	ret    

0000000000000845 <show_message>:
 845:	55                   	push   rbp
 846:	48 89 e5             	mov    rbp,rsp
 849:	48 8d 3d c0 01 00 00 	lea    rdi,[rip+0x1c0]        # a10 <_IO_stdin_used+0x10>
 850:	e8 8b fd ff ff       	call   5e0 <puts@plt>
 855:	e8 e0 fe ff ff       	call   73a <show_snapshot>
 85a:	bf 01 00 00 00       	mov    edi,0x1
 85f:	e8 ac fd ff ff       	call   610 <exit@plt>

0000000000000864 <f2>:
 864:	55                   	push   rbp
 865:	48 89 e5             	mov    rbp,rsp
 868:	48 83 ec 30          	sub    rsp,0x30
 86c:	48 89 7d d8          	mov    QWORD PTR [rbp-0x28],rdi
 870:	64 48 8b 04 25 28 00 	mov    rax,QWORD PTR fs:0x28
 877:	00 00 
 879:	48 89 45 f8          	mov    QWORD PTR [rbp-0x8],rax
 87d:	31 c0                	xor    eax,eax
 87f:	48 c7 45 e0 06 00 00 	mov    QWORD PTR [rbp-0x20],0x6
 886:	00 
 887:	48 c7 45 e8 07 00 00 	mov    QWORD PTR [rbp-0x18],0x7
 88e:	00 
 88f:	48 c7 45 f0 08 00 00 	mov    QWORD PTR [rbp-0x10],0x8
 896:	00 
 897:	48 8d 05 a7 ff ff ff 	lea    rax,[rip+0xffffffffffffffa7]        # 845 <show_message>
 89e:	48 89 45 08          	mov    QWORD PTR [rbp+0x8],rax
 8a2:	48 89 e0             	mov    rax,rsp
 8a5:	48 89 05 a4 07 20 00 	mov    QWORD PTR [rip+0x2007a4],rax        # 201050 <esp>
 8ac:	e8 03 ff ff ff       	call   7b4 <take_snapshot>
 8b1:	90                   	nop
 8b2:	48 8b 45 f8          	mov    rax,QWORD PTR [rbp-0x8]
 8b6:	64 48 33 04 25 28 00 	xor    rax,QWORD PTR fs:0x28
 8bd:	00 00 
 8bf:	74 05                	je     8c6 <f2+0x62>
 8c1:	e8 2a fd ff ff       	call   5f0 <__stack_chk_fail@plt>
 8c6:	c9                   	leave  
 8c7:	c3                   	ret    

00000000000008c8 <f1>:
 8c8:	55                   	push   rbp
 8c9:	48 89 e5             	mov    rbp,rsp
 8cc:	48 83 ec 20          	sub    rsp,0x20
 8d0:	64 48 8b 04 25 28 00 	mov    rax,QWORD PTR fs:0x28
 8d7:	00 00 
 8d9:	48 89 45 f8          	mov    QWORD PTR [rbp-0x8],rax
 8dd:	31 c0                	xor    eax,eax
 8df:	48 c7 45 e0 03 00 00 	mov    QWORD PTR [rbp-0x20],0x3
 8e6:	00 
 8e7:	48 c7 45 e8 04 00 00 	mov    QWORD PTR [rbp-0x18],0x4
 8ee:	00 
 8ef:	48 c7 45 f0 05 00 00 	mov    QWORD PTR [rbp-0x10],0x5
 8f6:	00 
 8f7:	bf ef be ad de       	mov    edi,0xdeadbeef
 8fc:	e8 63 ff ff ff       	call   864 <f2>
 901:	90                   	nop
 902:	48 8b 45 f8          	mov    rax,QWORD PTR [rbp-0x8]
 906:	64 48 33 04 25 28 00 	xor    rax,QWORD PTR fs:0x28
 90d:	00 00 
 90f:	74 05                	je     916 <f1+0x4e>
 911:	e8 da fc ff ff       	call   5f0 <__stack_chk_fail@plt>
 916:	c9                   	leave  
 917:	c3                   	ret    

0000000000000918 <main>:
 918:	55                   	push   rbp
 919:	48 89 e5             	mov    rbp,rsp
 91c:	48 83 ec 20          	sub    rsp,0x20
 920:	64 48 8b 04 25 28 00 	mov    rax,QWORD PTR fs:0x28
 927:	00 00 
 929:	48 89 45 f8          	mov    QWORD PTR [rbp-0x8],rax
 92d:	31 c0                	xor    eax,eax
 92f:	48 c7 45 e0 01 00 00 	mov    QWORD PTR [rbp-0x20],0x1
 936:	00 
 937:	48 c7 45 e8 02 00 00 	mov    QWORD PTR [rbp-0x18],0x2
 93e:	00 
 93f:	48 c7 45 f0 03 00 00 	mov    QWORD PTR [rbp-0x10],0x3
 946:	00 
 947:	48 89 e8             	mov    rax,rbp
 94a:	48 89 05 0f 0f 20 00 	mov    QWORD PTR [rip+0x200f0f],rax        # 201860 <ebp>
 951:	b8 00 00 00 00       	mov    eax,0x0
 956:	e8 6d ff ff ff       	call   8c8 <f1>
 95b:	e8 da fd ff ff       	call   73a <show_snapshot>
 960:	b8 00 00 00 00       	mov    eax,0x0
 965:	48 8b 55 f8          	mov    rdx,QWORD PTR [rbp-0x8]
 969:	64 48 33 14 25 28 00 	xor    rdx,QWORD PTR fs:0x28
 970:	00 00 
 972:	74 05                	je     979 <main+0x61>
 974:	e8 77 fc ff ff       	call   5f0 <__stack_chk_fail@plt>
 979:	c9                   	leave  
 97a:	c3                   	ret    
 97b:	0f 1f 44 00 00       	nop    DWORD PTR [rax+rax*1+0x0]

0000000000000980 <__libc_csu_init>:
 980:	41 57                	push   r15
 982:	41 56                	push   r14
 984:	49 89 d7             	mov    r15,rdx
 987:	41 55                	push   r13
 989:	41 54                	push   r12
 98b:	4c 8d 25 0e 04 20 00 	lea    r12,[rip+0x20040e]        # 200da0 <__frame_dummy_init_array_entry>
 992:	55                   	push   rbp
 993:	48 8d 2d 0e 04 20 00 	lea    rbp,[rip+0x20040e]        # 200da8 <__init_array_end>
 99a:	53                   	push   rbx
 99b:	41 89 fd             	mov    r13d,edi
 99e:	49 89 f6             	mov    r14,rsi
 9a1:	4c 29 e5             	sub    rbp,r12
 9a4:	48 83 ec 08          	sub    rsp,0x8
 9a8:	48 c1 fd 03          	sar    rbp,0x3
 9ac:	e8 07 fc ff ff       	call   5b8 <_init>
 9b1:	48 85 ed             	test   rbp,rbp
 9b4:	74 20                	je     9d6 <__libc_csu_init+0x56>
 9b6:	31 db                	xor    ebx,ebx
 9b8:	0f 1f 84 00 00 00 00 	nop    DWORD PTR [rax+rax*1+0x0]
 9bf:	00 
 9c0:	4c 89 fa             	mov    rdx,r15
 9c3:	4c 89 f6             	mov    rsi,r14
 9c6:	44 89 ef             	mov    edi,r13d
 9c9:	41 ff 14 dc          	call   QWORD PTR [r12+rbx*8]
 9cd:	48 83 c3 01          	add    rbx,0x1
 9d1:	48 39 dd             	cmp    rbp,rbx
 9d4:	75 ea                	jne    9c0 <__libc_csu_init+0x40>
 9d6:	48 83 c4 08          	add    rsp,0x8
 9da:	5b                   	pop    rbx
 9db:	5d                   	pop    rbp
 9dc:	41 5c                	pop    r12
 9de:	41 5d                	pop    r13
 9e0:	41 5e                	pop    r14
 9e2:	41 5f                	pop    r15
 9e4:	c3                   	ret    
 9e5:	90                   	nop
 9e6:	66 2e 0f 1f 84 00 00 	nop    WORD PTR cs:[rax+rax*1+0x0]
 9ed:	00 00 00 

00000000000009f0 <__libc_csu_fini>:
 9f0:	f3 c3                	repz ret 

Disassembly of section .fini:

00000000000009f4 <_fini>:
 9f4:	48 83 ec 08          	sub    rsp,0x8
 9f8:	48 83 c4 08          	add    rsp,0x8
 9fc:	c3                   	ret    
