
hack:     file format elf64-x86-64


Disassembly of section .init:

00000000000005d8 <_init>:
 5d8:	48 83 ec 08          	sub    rsp,0x8
 5dc:	48 8b 05 05 0a 20 00 	mov    rax,QWORD PTR [rip+0x200a05]        # 200fe8 <__gmon_start__>
 5e3:	48 85 c0             	test   rax,rax
 5e6:	74 02                	je     5ea <_init+0x12>
 5e8:	ff d0                	call   rax
 5ea:	48 83 c4 08          	add    rsp,0x8
 5ee:	c3                   	ret    

Disassembly of section .plt:

00000000000005f0 <.plt>:
 5f0:	ff 35 aa 09 20 00    	push   QWORD PTR [rip+0x2009aa]        # 200fa0 <_GLOBAL_OFFSET_TABLE_+0x8>
 5f6:	ff 25 ac 09 20 00    	jmp    QWORD PTR [rip+0x2009ac]        # 200fa8 <_GLOBAL_OFFSET_TABLE_+0x10>
 5fc:	0f 1f 40 00          	nop    DWORD PTR [rax+0x0]

0000000000000600 <getpid@plt>:
 600:	ff 25 aa 09 20 00    	jmp    QWORD PTR [rip+0x2009aa]        # 200fb0 <getpid@GLIBC_2.2.5>
 606:	68 00 00 00 00       	push   0x0
 60b:	e9 e0 ff ff ff       	jmp    5f0 <.plt>

0000000000000610 <printf@plt>:
 610:	ff 25 a2 09 20 00    	jmp    QWORD PTR [rip+0x2009a2]        # 200fb8 <printf@GLIBC_2.2.5>
 616:	68 01 00 00 00       	push   0x1
 61b:	e9 d0 ff ff ff       	jmp    5f0 <.plt>

0000000000000620 <mprotect@plt>:
 620:	ff 25 9a 09 20 00    	jmp    QWORD PTR [rip+0x20099a]        # 200fc0 <mprotect@GLIBC_2.2.5>
 626:	68 02 00 00 00       	push   0x2
 62b:	e9 c0 ff ff ff       	jmp    5f0 <.plt>

0000000000000630 <perror@plt>:
 630:	ff 25 92 09 20 00    	jmp    QWORD PTR [rip+0x200992]        # 200fc8 <perror@GLIBC_2.2.5>
 636:	68 03 00 00 00       	push   0x3
 63b:	e9 b0 ff ff ff       	jmp    5f0 <.plt>

0000000000000640 <getpagesize@plt>:
 640:	ff 25 8a 09 20 00    	jmp    QWORD PTR [rip+0x20098a]        # 200fd0 <getpagesize@GLIBC_2.2.5>
 646:	68 04 00 00 00       	push   0x4
 64b:	e9 a0 ff ff ff       	jmp    5f0 <.plt>

Disassembly of section .plt.got:

0000000000000650 <__cxa_finalize@plt>:
 650:	ff 25 a2 09 20 00    	jmp    QWORD PTR [rip+0x2009a2]        # 200ff8 <__cxa_finalize@GLIBC_2.2.5>
 656:	66 90                	xchg   ax,ax

Disassembly of section .text:

0000000000000660 <_start>:
 660:	31 ed                	xor    ebp,ebp
 662:	49 89 d1             	mov    r9,rdx
 665:	5e                   	pop    rsi
 666:	48 89 e2             	mov    rdx,rsp
 669:	48 83 e4 f0          	and    rsp,0xfffffffffffffff0
 66d:	50                   	push   rax
 66e:	54                   	push   rsp
 66f:	4c 8d 05 ea 02 00 00 	lea    r8,[rip+0x2ea]        # 960 <__libc_csu_fini>
 676:	48 8d 0d 73 02 00 00 	lea    rcx,[rip+0x273]        # 8f0 <__libc_csu_init>
 67d:	48 8d 3d f1 00 00 00 	lea    rdi,[rip+0xf1]        # 775 <main>
 684:	ff 15 56 09 20 00    	call   QWORD PTR [rip+0x200956]        # 200fe0 <__libc_start_main@GLIBC_2.2.5>
 68a:	f4                   	hlt    
 68b:	0f 1f 44 00 00       	nop    DWORD PTR [rax+rax*1+0x0]

0000000000000690 <deregister_tm_clones>:
 690:	48 8d 3d 79 09 20 00 	lea    rdi,[rip+0x200979]        # 201010 <__TMC_END__>
 697:	55                   	push   rbp
 698:	48 8d 05 71 09 20 00 	lea    rax,[rip+0x200971]        # 201010 <__TMC_END__>
 69f:	48 39 f8             	cmp    rax,rdi
 6a2:	48 89 e5             	mov    rbp,rsp
 6a5:	74 19                	je     6c0 <deregister_tm_clones+0x30>
 6a7:	48 8b 05 2a 09 20 00 	mov    rax,QWORD PTR [rip+0x20092a]        # 200fd8 <_ITM_deregisterTMCloneTable>
 6ae:	48 85 c0             	test   rax,rax
 6b1:	74 0d                	je     6c0 <deregister_tm_clones+0x30>
 6b3:	5d                   	pop    rbp
 6b4:	ff e0                	jmp    rax
 6b6:	66 2e 0f 1f 84 00 00 	nop    WORD PTR cs:[rax+rax*1+0x0]
 6bd:	00 00 00 
 6c0:	5d                   	pop    rbp
 6c1:	c3                   	ret    
 6c2:	0f 1f 40 00          	nop    DWORD PTR [rax+0x0]
 6c6:	66 2e 0f 1f 84 00 00 	nop    WORD PTR cs:[rax+rax*1+0x0]
 6cd:	00 00 00 

00000000000006d0 <register_tm_clones>:
 6d0:	48 8d 3d 39 09 20 00 	lea    rdi,[rip+0x200939]        # 201010 <__TMC_END__>
 6d7:	48 8d 35 32 09 20 00 	lea    rsi,[rip+0x200932]        # 201010 <__TMC_END__>
 6de:	55                   	push   rbp
 6df:	48 29 fe             	sub    rsi,rdi
 6e2:	48 89 e5             	mov    rbp,rsp
 6e5:	48 c1 fe 03          	sar    rsi,0x3
 6e9:	48 89 f0             	mov    rax,rsi
 6ec:	48 c1 e8 3f          	shr    rax,0x3f
 6f0:	48 01 c6             	add    rsi,rax
 6f3:	48 d1 fe             	sar    rsi,1
 6f6:	74 18                	je     710 <register_tm_clones+0x40>
 6f8:	48 8b 05 f1 08 20 00 	mov    rax,QWORD PTR [rip+0x2008f1]        # 200ff0 <_ITM_registerTMCloneTable>
 6ff:	48 85 c0             	test   rax,rax
 702:	74 0c                	je     710 <register_tm_clones+0x40>
 704:	5d                   	pop    rbp
 705:	ff e0                	jmp    rax
 707:	66 0f 1f 84 00 00 00 	nop    WORD PTR [rax+rax*1+0x0]
 70e:	00 00 
 710:	5d                   	pop    rbp
 711:	c3                   	ret    
 712:	0f 1f 40 00          	nop    DWORD PTR [rax+0x0]
 716:	66 2e 0f 1f 84 00 00 	nop    WORD PTR cs:[rax+rax*1+0x0]
 71d:	00 00 00 

0000000000000720 <__do_global_dtors_aux>:
 720:	80 3d e9 08 20 00 00 	cmp    BYTE PTR [rip+0x2008e9],0x0        # 201010 <__TMC_END__>
 727:	75 2f                	jne    758 <__do_global_dtors_aux+0x38>
 729:	48 83 3d c7 08 20 00 	cmp    QWORD PTR [rip+0x2008c7],0x0        # 200ff8 <__cxa_finalize@GLIBC_2.2.5>
 730:	00 
 731:	55                   	push   rbp
 732:	48 89 e5             	mov    rbp,rsp
 735:	74 0c                	je     743 <__do_global_dtors_aux+0x23>
 737:	48 8b 3d ca 08 20 00 	mov    rdi,QWORD PTR [rip+0x2008ca]        # 201008 <__dso_handle>
 73e:	e8 0d ff ff ff       	call   650 <__cxa_finalize@plt>
 743:	e8 48 ff ff ff       	call   690 <deregister_tm_clones>
 748:	c6 05 c1 08 20 00 01 	mov    BYTE PTR [rip+0x2008c1],0x1        # 201010 <__TMC_END__>
 74f:	5d                   	pop    rbp
 750:	c3                   	ret    
 751:	0f 1f 80 00 00 00 00 	nop    DWORD PTR [rax+0x0]
 758:	f3 c3                	repz ret 
 75a:	66 0f 1f 44 00 00    	nop    WORD PTR [rax+rax*1+0x0]

0000000000000760 <frame_dummy>:
 760:	55                   	push   rbp
 761:	48 89 e5             	mov    rbp,rsp
 764:	5d                   	pop    rbp
 765:	e9 66 ff ff ff       	jmp    6d0 <register_tm_clones>

000000000000076a <foo>:
 76a:	55                   	push   rbp
 76b:	48 89 e5             	mov    rbp,rsp
 76e:	b8 0c 00 00 00       	mov    eax,0xc
 773:	5d                   	pop    rbp
 774:	c3                   	ret    

0000000000000775 <main>:
 775:	55                   	push   rbp
 776:	48 89 e5             	mov    rbp,rsp
 779:	48 83 ec 30          	sub    rsp,0x30
 77d:	e8 be fe ff ff       	call   640 <getpagesize@plt>
 782:	89 05 8c 08 20 00    	mov    DWORD PTR [rip+0x20088c],eax        # 201014 <pagesize>
 788:	48 8d 05 db ff ff ff 	lea    rax,[rip+0xffffffffffffffdb]        # 76a <foo>
 78f:	48 89 45 e0          	mov    QWORD PTR [rbp-0x20],rax
 793:	48 8b 45 e0          	mov    rax,QWORD PTR [rbp-0x20]
 797:	48 89 c6             	mov    rsi,rax
 79a:	48 8d 3d d7 01 00 00 	lea    rdi,[rip+0x1d7]        # 978 <_IO_stdin_used+0x8>
 7a1:	b8 00 00 00 00       	mov    eax,0x0
 7a6:	e8 65 fe ff ff       	call   610 <printf@plt>
 7ab:	e8 90 fe ff ff       	call   640 <getpagesize@plt>
 7b0:	f7 d8                	neg    eax
 7b2:	48 63 d0             	movsxd rdx,eax
 7b5:	48 8b 45 e0          	mov    rax,QWORD PTR [rbp-0x20]
 7b9:	48 21 d0             	and    rax,rdx
 7bc:	48 89 45 e8          	mov    QWORD PTR [rbp-0x18],rax
 7c0:	48 8b 45 e8          	mov    rax,QWORD PTR [rbp-0x18]
 7c4:	48 89 c6             	mov    rsi,rax
 7c7:	48 8d 3d c2 01 00 00 	lea    rdi,[rip+0x1c2]        # 990 <_IO_stdin_used+0x20>
 7ce:	b8 00 00 00 00       	mov    eax,0x0
 7d3:	e8 38 fe ff ff       	call   610 <printf@plt>
 7d8:	8b 05 36 08 20 00    	mov    eax,DWORD PTR [rip+0x200836]        # 201014 <pagesize>
 7de:	48 63 d0             	movsxd rdx,eax
 7e1:	48 8b 45 e8          	mov    rax,QWORD PTR [rbp-0x18]
 7e5:	48 01 d0             	add    rax,rdx
 7e8:	48 89 45 f0          	mov    QWORD PTR [rbp-0x10],rax
 7ec:	e8 0f fe ff ff       	call   600 <getpid@plt>
 7f1:	89 c6                	mov    esi,eax
 7f3:	48 8d 3d bc 01 00 00 	lea    rdi,[rip+0x1bc]        # 9b6 <_IO_stdin_used+0x46>
 7fa:	b8 00 00 00 00       	mov    eax,0x0
 7ff:	e8 0c fe ff ff       	call   610 <printf@plt>
 804:	e8 61 ff ff ff       	call   76a <foo>
 809:	89 c6                	mov    esi,eax
 80b:	48 8d 3d b3 01 00 00 	lea    rdi,[rip+0x1b3]        # 9c5 <_IO_stdin_used+0x55>
 812:	b8 00 00 00 00       	mov    eax,0x0
 817:	e8 f4 fd ff ff       	call   610 <printf@plt>
 81c:	8b 05 f2 07 20 00    	mov    eax,DWORD PTR [rip+0x2007f2]        # 201014 <pagesize>
 822:	48 63 c8             	movsxd rcx,eax
 825:	48 8b 45 e8          	mov    rax,QWORD PTR [rbp-0x18]
 829:	ba 07 00 00 00       	mov    edx,0x7
 82e:	48 89 ce             	mov    rsi,rcx
 831:	48 89 c7             	mov    rdi,rax
 834:	e8 e7 fd ff ff       	call   620 <mprotect@plt>
 839:	85 c0                	test   eax,eax
 83b:	74 16                	je     853 <main+0xde>
 83d:	48 8d 3d 9f 01 00 00 	lea    rdi,[rip+0x19f]        # 9e3 <_IO_stdin_used+0x73>
 844:	e8 e7 fd ff ff       	call   630 <perror@plt>
 849:	b8 01 00 00 00       	mov    eax,0x1
 84e:	e9 8d 00 00 00       	jmp    8e0 <main+0x16b>
 853:	48 8d 05 10 ff ff ff 	lea    rax,[rip+0xffffffffffffff10]        # 76a <foo>
 85a:	48 89 45 d8          	mov    QWORD PTR [rbp-0x28],rax
 85e:	eb 05                	jmp    865 <main+0xf0>
 860:	48 83 45 d8 01       	add    QWORD PTR [rbp-0x28],0x1
 865:	48 8b 55 d8          	mov    rdx,QWORD PTR [rbp-0x28]
 869:	48 8b 45 f0          	mov    rax,QWORD PTR [rbp-0x10]
 86d:	48 39 c2             	cmp    rdx,rax
 870:	7d 1b                	jge    88d <main+0x118>
 872:	48 8b 45 d8          	mov    rax,QWORD PTR [rbp-0x28]
 876:	48 3d b8 00 00 00    	cmp    rax,0xb8
 87c:	74 0f                	je     88d <main+0x118>
 87e:	48 8b 45 d8          	mov    rax,QWORD PTR [rbp-0x28]
 882:	48 83 c0 01          	add    rax,0x1
 886:	0f b6 00             	movzx  eax,BYTE PTR [rax]
 889:	3c 0c                	cmp    al,0xc
 88b:	75 d3                	jne    860 <main+0xeb>
 88d:	48 83 45 d8 01       	add    QWORD PTR [rbp-0x28],0x1
 892:	48 8b 45 d8          	mov    rax,QWORD PTR [rbp-0x28]
 896:	48 89 45 f8          	mov    QWORD PTR [rbp-0x8],rax
 89a:	48 8b 45 f8          	mov    rax,QWORD PTR [rbp-0x8]
 89e:	0f b6 00             	movzx  eax,BYTE PTR [rax]
 8a1:	0f be d0             	movsx  edx,al
 8a4:	48 8b 45 d8          	mov    rax,QWORD PTR [rbp-0x28]
 8a8:	48 89 c6             	mov    rsi,rax
 8ab:	48 8d 3d 3a 01 00 00 	lea    rdi,[rip+0x13a]        # 9ec <_IO_stdin_used+0x7c>
 8b2:	b8 00 00 00 00       	mov    eax,0x0
 8b7:	e8 54 fd ff ff       	call   610 <printf@plt>
 8bc:	48 8b 45 f8          	mov    rax,QWORD PTR [rbp-0x8]
 8c0:	c6 00 ff             	mov    BYTE PTR [rax],0xff
 8c3:	e8 a2 fe ff ff       	call   76a <foo>
 8c8:	89 c6                	mov    esi,eax
 8ca:	48 8d 3d 2f 01 00 00 	lea    rdi,[rip+0x12f]        # a00 <_IO_stdin_used+0x90>
 8d1:	b8 00 00 00 00       	mov    eax,0x0
 8d6:	e8 35 fd ff ff       	call   610 <printf@plt>
 8db:	b8 00 00 00 00       	mov    eax,0x0
 8e0:	c9                   	leave  
 8e1:	c3                   	ret    
 8e2:	66 2e 0f 1f 84 00 00 	nop    WORD PTR cs:[rax+rax*1+0x0]
 8e9:	00 00 00 
 8ec:	0f 1f 40 00          	nop    DWORD PTR [rax+0x0]

00000000000008f0 <__libc_csu_init>:
 8f0:	41 57                	push   r15
 8f2:	41 56                	push   r14
 8f4:	49 89 d7             	mov    r15,rdx
 8f7:	41 55                	push   r13
 8f9:	41 54                	push   r12
 8fb:	4c 8d 25 96 04 20 00 	lea    r12,[rip+0x200496]        # 200d98 <__frame_dummy_init_array_entry>
 902:	55                   	push   rbp
 903:	48 8d 2d 96 04 20 00 	lea    rbp,[rip+0x200496]        # 200da0 <__init_array_end>
 90a:	53                   	push   rbx
 90b:	41 89 fd             	mov    r13d,edi
 90e:	49 89 f6             	mov    r14,rsi
 911:	4c 29 e5             	sub    rbp,r12
 914:	48 83 ec 08          	sub    rsp,0x8
 918:	48 c1 fd 03          	sar    rbp,0x3
 91c:	e8 b7 fc ff ff       	call   5d8 <_init>
 921:	48 85 ed             	test   rbp,rbp
 924:	74 20                	je     946 <__libc_csu_init+0x56>
 926:	31 db                	xor    ebx,ebx
 928:	0f 1f 84 00 00 00 00 	nop    DWORD PTR [rax+rax*1+0x0]
 92f:	00 
 930:	4c 89 fa             	mov    rdx,r15
 933:	4c 89 f6             	mov    rsi,r14
 936:	44 89 ef             	mov    edi,r13d
 939:	41 ff 14 dc          	call   QWORD PTR [r12+rbx*8]
 93d:	48 83 c3 01          	add    rbx,0x1
 941:	48 39 dd             	cmp    rbp,rbx
 944:	75 ea                	jne    930 <__libc_csu_init+0x40>
 946:	48 83 c4 08          	add    rsp,0x8
 94a:	5b                   	pop    rbx
 94b:	5d                   	pop    rbp
 94c:	41 5c                	pop    r12
 94e:	41 5d                	pop    r13
 950:	41 5e                	pop    r14
 952:	41 5f                	pop    r15
 954:	c3                   	ret    
 955:	90                   	nop
 956:	66 2e 0f 1f 84 00 00 	nop    WORD PTR cs:[rax+rax*1+0x0]
 95d:	00 00 00 

0000000000000960 <__libc_csu_fini>:
 960:	f3 c3                	repz ret 

Disassembly of section .fini:

0000000000000964 <_fini>:
 964:	48 83 ec 08          	sub    rsp,0x8
 968:	48 83 c4 08          	add    rsp,0x8
 96c:	c3                   	ret    
